target datalayout = "e-m:e-p270:32:32-p271:32:32-p272:64:64-i64:64-i128:128-f80:128-n8:16:32:64-S128"
target triple = "x86_64-pc-linux-gnu"

%"class.WasmEdge::LLVM::Type" = type { ptr }

; Function Attrs: mustprogress nounwind uwtable
define internal void @_ZN12_GLOBAL__N_116FunctionCompiler18compileSplatLoadOpEjjjN8WasmEdge4LLVM4TypeES3_(ptr noundef nonnull align 8 dereferenceable(200) %0, i32 noundef %1, i32 noundef %2, i32 noundef %3, ptr noundef %4, ptr noundef %5) #0 align 2 {
  %7 = alloca ptr, align 8
  %8 = alloca i32, align 4
  %9 = alloca i32, align 4
  %10 = alloca i32, align 4
  %11 = alloca ptr, align 8
  %12 = alloca ptr, align 8
  %13 = alloca %"class.WasmEdge::LLVM::Type", align 8
  %14 = alloca %"class.WasmEdge::LLVM::Type", align 8
  store ptr %0, ptr %7, align 8
  store i32 %1, ptr %8, align 4
  store i32 %2, ptr %9, align 4
  store i32 %3, ptr %10, align 4
  store ptr %4, ptr %11, align 8
  store ptr %5, ptr %12, align 8
  %15 = load ptr, ptr %7, align 8
  %16 = load i32, ptr %8, align 4
  %17 = load i32, ptr %9, align 4
  %18 = load i32, ptr %10, align 4
  call void @llvm.memcpy.p0.p0.i64(ptr align 8 %13, ptr align 8 %4, i64 8, i1 false)
  call void @_ZN12_GLOBAL__N_116FunctionCompiler13compileLoadOpEjjjN8WasmEdge4LLVM4TypeE(ptr noundef nonnull align 8 dereferenceable(200) %15, i32 noundef %16, i32 noundef %17, i32 noundef %18, ptr noundef %13) #12
  call void @llvm.memcpy.p0.p0.i64(ptr align 8 %14, ptr align 8 %5, i64 8, i1 false)
  call void @_ZN12_GLOBAL__N_116FunctionCompiler14compileSplatOpEN8WasmEdge4LLVM4TypeE(ptr noundef nonnull align 8 dereferenceable(200) %15, ptr noundef %14) #12
  ret void
}