; Function Attrs: mustprogress nounwind uwtable
define internal fastcc void @_ZN12_GLOBAL__N_116FunctionCompiler18compileSplatLoadOpEjjjN8WasmEdge4LLVM4TypeES3_(ptr noundef nonnull align 8 dereferenceable(200) %0, i32 noundef %1, i32 noundef %2, i64 %.0.val, i64 %.0.val1) unnamed_addr #0 align 2 {
  %4 = alloca %"class.WasmEdge::LLVM::Type", align 8
  %5 = alloca %"class.WasmEdge::LLVM::Type", align 8
  store i64 %.0.val, ptr %4, align 8
  call fastcc void @_ZN12_GLOBAL__N_116FunctionCompiler13compileLoadOpEjjjN8WasmEdge4LLVM4TypeE(ptr noundef nonnull align 8 dereferenceable(200) %0, i32 noundef %1, i32 noundef %2, ptr noundef %4) #16
  store i64 %.0.val1, ptr %5, align 8
  call fastcc void @_ZN12_GLOBAL__N_116FunctionCompiler14compileSplatOpEN8WasmEdge4LLVM4TypeE(ptr noundef nonnull align 8 dereferenceable(200) %0, ptr noundef %5) #16
  ret void
}